target datalayout = "e-m:e-p270:32:32-p271:32:32-p272:64:64-i64:64-i128:128-f80:128-n8:16:32:64-S128"
target triple = "x86_64-pc-linux-gnu"

%"class.vcg::Point3" = type { [3 x float] }
%"class.vcg::Line3" = type { %"class.vcg::Point3", %"class.vcg::Point3" }

; Function Attrs: mustprogress uwtable
define linkonce_odr { <2 x float>, float } @_ZNK3vcg6Point3IfEplERKS1_(ptr noundef nonnull align 4 dereferenceable(12) %0, ptr noundef nonnull align 4 dereferenceable(12) %1) #3 comdat align 2 {
  %3 = alloca %"class.vcg::Point3", align 4
  %4 = alloca ptr, align 8
  %5 = alloca ptr, align 8
  %6 = alloca { <2 x float>, float }, align 8
  store ptr %0, ptr %4, align 8
  store ptr %1, ptr %5, align 8
  %7 = load ptr, ptr %4, align 8
  %8 = getelementptr inbounds %"class.vcg::Point3", ptr %7, i32 0, i32 0
  %9 = getelementptr inbounds [3 x float], ptr %8, i64 0, i64 0
  %10 = load float, ptr %9, align 4
  %11 = load ptr, ptr %5, align 8
  %12 = getelementptr inbounds %"class.vcg::Point3", ptr %11, i32 0, i32 0
  %13 = getelementptr inbounds [3 x float], ptr %12, i64 0, i64 0
  %14 = load float, ptr %13, align 4
  %15 = fadd float %10, %14
  %16 = getelementptr inbounds %"class.vcg::Point3", ptr %7, i32 0, i32 0
  %17 = getelementptr inbounds [3 x float], ptr %16, i64 0, i64 1
  %18 = load float, ptr %17, align 4
  %19 = load ptr, ptr %5, align 8
  %20 = getelementptr inbounds %"class.vcg::Point3", ptr %19, i32 0, i32 0
  %21 = getelementptr inbounds [3 x float], ptr %20, i64 0, i64 1
  %22 = load float, ptr %21, align 4
  %23 = fadd float %18, %22
  %24 = getelementptr inbounds %"class.vcg::Point3", ptr %7, i32 0, i32 0
  %25 = getelementptr inbounds [3 x float], ptr %24, i64 0, i64 2
  %26 = load float, ptr %25, align 4
  %27 = load ptr, ptr %5, align 8
  %28 = getelementptr inbounds %"class.vcg::Point3", ptr %27, i32 0, i32 0
  %29 = getelementptr inbounds [3 x float], ptr %28, i64 0, i64 2
  %30 = load float, ptr %29, align 4
  %31 = fadd float %26, %30
  call void @_ZN3vcg6Point3IfEC2Efff(ptr noundef nonnull align 4 dereferenceable(12) %3, float noundef %15, float noundef %23, float noundef %31)
  %32 = getelementptr inbounds %"class.vcg::Point3", ptr %3, i32 0, i32 0
  call void @llvm.memcpy.p0.p0.i64(ptr align 8 %6, ptr align 4 %32, i64 12, i1 false)
  %33 = load { <2 x float>, float }, ptr %6, align 8
  ret { <2 x float>, float } %33
}

; Function Attrs: mustprogress uwtable
define linkonce_odr { <2 x float>, float } @_ZNK3vcg6Point3IfEmlEf(ptr noundef nonnull align 4 dereferenceable(12) %0, float noundef %1) #3 comdat align 2 {
  %3 = alloca %"class.vcg::Point3", align 4
  %4 = alloca ptr, align 8
  %5 = alloca float, align 4
  %6 = alloca { <2 x float>, float }, align 8
  store ptr %0, ptr %4, align 8
  store float %1, ptr %5, align 4
  %7 = load ptr, ptr %4, align 8
  %8 = getelementptr inbounds %"class.vcg::Point3", ptr %7, i32 0, i32 0
  %9 = getelementptr inbounds [3 x float], ptr %8, i64 0, i64 0
  %10 = load float, ptr %9, align 4
  %11 = load float, ptr %5, align 4
  %12 = fmul float %10, %11
  %13 = getelementptr inbounds %"class.vcg::Point3", ptr %7, i32 0, i32 0
  %14 = getelementptr inbounds [3 x float], ptr %13, i64 0, i64 1
  %15 = load float, ptr %14, align 4
  %16 = load float, ptr %5, align 4
  %17 = fmul float %15, %16
  %18 = getelementptr inbounds %"class.vcg::Point3", ptr %7, i32 0, i32 0
  %19 = getelementptr inbounds [3 x float], ptr %18, i64 0, i64 2
  %20 = load float, ptr %19, align 4
  %21 = load float, ptr %5, align 4
  %22 = fmul float %20, %21
  call void @_ZN3vcg6Point3IfEC2Efff(ptr noundef nonnull align 4 dereferenceable(12) %3, float noundef %12, float noundef %17, float noundef %22)
  %23 = getelementptr inbounds %"class.vcg::Point3", ptr %3, i32 0, i32 0
  call void @llvm.memcpy.p0.p0.i64(ptr align 8 %6, ptr align 4 %23, i64 12, i1 false)
  %24 = load { <2 x float>, float }, ptr %6, align 8
  ret { <2 x float>, float } %24
}

; Function Attrs: mustprogress nounwind uwtable
define linkonce_odr noundef float @_ZNK3vcg6Point3IfE11SquaredNormEv(ptr noundef nonnull align 4 dereferenceable(12) %0) #0 comdat align 2 {
  %2 = alloca ptr, align 8
  store ptr %0, ptr %2, align 8
  %3 = load ptr, ptr %2, align 8
  %4 = getelementptr inbounds %"class.vcg::Point3", ptr %3, i32 0, i32 0
  %5 = getelementptr inbounds [3 x float], ptr %4, i64 0, i64 0
  %6 = load float, ptr %5, align 4
  %7 = getelementptr inbounds %"class.vcg::Point3", ptr %3, i32 0, i32 0
  %8 = getelementptr inbounds [3 x float], ptr %7, i64 0, i64 0
  %9 = load float, ptr %8, align 4
  %10 = getelementptr inbounds %"class.vcg::Point3", ptr %3, i32 0, i32 0
  %11 = getelementptr inbounds [3 x float], ptr %10, i64 0, i64 1
  %12 = load float, ptr %11, align 4
  %13 = getelementptr inbounds %"class.vcg::Point3", ptr %3, i32 0, i32 0
  %14 = getelementptr inbounds [3 x float], ptr %13, i64 0, i64 1
  %15 = load float, ptr %14, align 4
  %16 = fmul float %12, %15
  %17 = call float @llvm.fmuladd.f32(float %6, float %9, float %16)
  %18 = getelementptr inbounds %"class.vcg::Point3", ptr %3, i32 0, i32 0
  %19 = getelementptr inbounds [3 x float], ptr %18, i64 0, i64 2
  %20 = load float, ptr %19, align 4
  %21 = getelementptr inbounds %"class.vcg::Point3", ptr %3, i32 0, i32 0
  %22 = getelementptr inbounds [3 x float], ptr %21, i64 0, i64 2
  %23 = load float, ptr %22, align 4
  %24 = call float @llvm.fmuladd.f32(float %20, float %23, float %17)
  ret float %24
}

; Function Attrs: mustprogress nounwind uwtable
define linkonce_odr noundef float @_ZN3vcg4math4SqrtEf(float noundef %0) #0 comdat {
  %2 = alloca float, align 4
  store float %0, ptr %2, align 4
  %3 = load float, ptr %2, align 4
  %4 = call float @sqrtf(float noundef %3) #7
  ret float %4
}

; Function Attrs: mustprogress nounwind uwtable
define linkonce_odr noundef float @_ZNK3vcg6Point3IfEmlERKS1_(ptr noundef nonnull align 4 dereferenceable(12) %0, ptr noundef nonnull align 4 dereferenceable(12) %1) #0 comdat align 2 {
  %3 = alloca ptr, align 8
  %4 = alloca ptr, align 8
  store ptr %0, ptr %3, align 8
  store ptr %1, ptr %4, align 8
  %5 = load ptr, ptr %3, align 8
  %6 = getelementptr inbounds %"class.vcg::Point3", ptr %5, i32 0, i32 0
  %7 = getelementptr inbounds [3 x float], ptr %6, i64 0, i64 0
  %8 = load float, ptr %7, align 4
  %9 = load ptr, ptr %4, align 8
  %10 = getelementptr inbounds %"class.vcg::Point3", ptr %9, i32 0, i32 0
  %11 = getelementptr inbounds [3 x float], ptr %10, i64 0, i64 0
  %12 = load float, ptr %11, align 4
  %13 = getelementptr inbounds %"class.vcg::Point3", ptr %5, i32 0, i32 0
  %14 = getelementptr inbounds [3 x float], ptr %13, i64 0, i64 1
  %15 = load float, ptr %14, align 4
  %16 = load ptr, ptr %4, align 8
  %17 = getelementptr inbounds %"class.vcg::Point3", ptr %16, i32 0, i32 0
  %18 = getelementptr inbounds [3 x float], ptr %17, i64 0, i64 1
  %19 = load float, ptr %18, align 4
  %20 = fmul float %15, %19
  %21 = call float @llvm.fmuladd.f32(float %8, float %12, float %20)
  %22 = getelementptr inbounds %"class.vcg::Point3", ptr %5, i32 0, i32 0
  %23 = getelementptr inbounds [3 x float], ptr %22, i64 0, i64 2
  %24 = load float, ptr %23, align 4
  %25 = load ptr, ptr %4, align 8
  %26 = getelementptr inbounds %"class.vcg::Point3", ptr %25, i32 0, i32 0
  %27 = getelementptr inbounds [3 x float], ptr %26, i64 0, i64 2
  %28 = load float, ptr %27, align 4
  %29 = call float @llvm.fmuladd.f32(float %24, float %28, float %21)
  ret float %29
}

; Function Attrs: mustprogress nounwind uwtable
define linkonce_odr void @_ZN3vcg6Point3IfEC2Efff(ptr noundef nonnull align 4 dereferenceable(12) %0, float noundef %1, float noundef %2, float noundef %3) unnamed_addr #0 comdat align 2 {
  %5 = alloca ptr, align 8
  %6 = alloca float, align 4
  %7 = alloca float, align 4
  %8 = alloca float, align 4
  store ptr %0, ptr %5, align 8
  store float %1, ptr %6, align 4
  store float %2, ptr %7, align 4
  store float %3, ptr %8, align 4
  %9 = load ptr, ptr %5, align 8
  %10 = load float, ptr %6, align 4
  %11 = getelementptr inbounds %"class.vcg::Point3", ptr %9, i32 0, i32 0
  %12 = getelementptr inbounds [3 x float], ptr %11, i64 0, i64 0
  store float %10, ptr %12, align 4
  %13 = load float, ptr %7, align 4
  %14 = getelementptr inbounds %"class.vcg::Point3", ptr %9, i32 0, i32 0
  %15 = getelementptr inbounds [3 x float], ptr %14, i64 0, i64 1
  store float %13, ptr %15, align 4
  %16 = load float, ptr %8, align 4
  %17 = getelementptr inbounds %"class.vcg::Point3", ptr %9, i32 0, i32 0
  %18 = getelementptr inbounds [3 x float], ptr %17, i64 0, i64 2
  store float %16, ptr %18, align 4
  ret void
}

; Function Attrs: mustprogress uwtable
define linkonce_odr { <2 x float>, float } @_ZNK3vcg5Line3IfLb0EE1PEf(ptr noundef nonnull align 4 dereferenceable(24) %0, float noundef %1) #2 comdat align 2 {
  %3 = alloca %"class.vcg::Point3", align 4
  %4 = alloca ptr, align 8
  %5 = alloca float, align 4
  %6 = alloca %"class.vcg::Point3", align 4
  %7 = alloca { <2 x float>, float }, align 8
  %8 = alloca { <2 x float>, float }, align 8
  %9 = alloca { <2 x float>, float }, align 8
  store ptr %0, ptr %4, align 8
  store float %1, ptr %5, align 4
  %10 = load ptr, ptr %4, align 8
  %11 = getelementptr inbounds %"class.vcg::Line3", ptr %10, i32 0, i32 0
  %12 = getelementptr inbounds %"class.vcg::Line3", ptr %10, i32 0, i32 1
  %13 = load float, ptr %5, align 4
  %14 = call { <2 x float>, float } @_ZNK3vcg6Point3IfEmlEf(ptr noundef nonnull align 4 dereferenceable(12) %12, float noundef %13)
  %15 = getelementptr inbounds %"class.vcg::Point3", ptr %6, i32 0, i32 0
  store { <2 x float>, float } %14, ptr %7, align 8
  call void @llvm.memcpy.p0.p0.i64(ptr align 4 %15, ptr align 8 %7, i64 12, i1 false)
  %16 = call { <2 x float>, float } @_ZNK3vcg6Point3IfEplERKS1_(ptr noundef nonnull align 4 dereferenceable(12) %11, ptr noundef nonnull align 4 dereferenceable(12) %6)
  %17 = getelementptr inbounds %"class.vcg::Point3", ptr %3, i32 0, i32 0
  store { <2 x float>, float } %16, ptr %8, align 8
  call void @llvm.memcpy.p0.p0.i64(ptr align 4 %17, ptr align 8 %8, i64 12, i1 false)
  %18 = getelementptr inbounds %"class.vcg::Point3", ptr %3, i32 0, i32 0
  call void @llvm.memcpy.p0.p0.i64(ptr align 8 %9, ptr align 4 %18, i64 12, i1 false)
  %19 = load { <2 x float>, float }, ptr %9, align 8
  ret { <2 x float>, float } %19
}

; Function Attrs: mustprogress uwtable
define linkonce_odr noundef float @_ZNK3vcg5Line3IfLb0EE10ProjectionERKNS_6Point3IfEE(ptr noundef nonnull align 4 dereferenceable(24) %0, ptr noundef nonnull align 4 dereferenceable(12) %1) #2 comdat align 2 {
  %3 = alloca ptr, align 8
  %4 = alloca ptr, align 8
  %5 = alloca %"class.vcg::Point3", align 4
  %6 = alloca { <2 x float>, float }, align 8
  store ptr %0, ptr %3, align 8
  store ptr %1, ptr %4, align 8
  %7 = load ptr, ptr %3, align 8
  %8 = load ptr, ptr %4, align 8
  %9 = getelementptr inbounds %"class.vcg::Line3", ptr %7, i32 0, i32 0
  %10 = call { <2 x float>, float } @_ZNK3vcg6Point3IfEmiERKS1_(ptr noundef nonnull align 4 dereferenceable(12) %8, ptr noundef nonnull align 4 dereferenceable(12) %9)
  %11 = getelementptr inbounds %"class.vcg::Point3", ptr %5, i32 0, i32 0
  store { <2 x float>, float } %10, ptr %6, align 8
  call void @llvm.memcpy.p0.p0.i64(ptr align 4 %11, ptr align 8 %6, i64 12, i1 false)
  %12 = getelementptr inbounds %"class.vcg::Line3", ptr %7, i32 0, i32 1
  %13 = call noundef float @_ZNK3vcg6Point3IfE3dotERKS1_(ptr noundef nonnull align 4 dereferenceable(12) %5, ptr noundef nonnull align 4 dereferenceable(12) %12)
  %14 = getelementptr inbounds %"class.vcg::Line3", ptr %7, i32 0, i32 1
  %15 = call noundef float @_ZNK3vcg6Point3IfE11SquaredNormEv(ptr noundef nonnull align 4 dereferenceable(12) %14)
  %16 = fdiv float %13, %15
  ret float %16
}

; Function Attrs: mustprogress nounwind uwtable
define linkonce_odr noundef float @_ZNK3vcg6Point3IfE4NormEv(ptr noundef nonnull align 4 dereferenceable(12) %0) #0 comdat align 2 {
  %2 = alloca ptr, align 8
  store ptr %0, ptr %2, align 8
  %3 = load ptr, ptr %2, align 8
  %4 = getelementptr inbounds %"class.vcg::Point3", ptr %3, i32 0, i32 0
  %5 = getelementptr inbounds [3 x float], ptr %4, i64 0, i64 0
  %6 = load float, ptr %5, align 4
  %7 = getelementptr inbounds %"class.vcg::Point3", ptr %3, i32 0, i32 0
  %8 = getelementptr inbounds [3 x float], ptr %7, i64 0, i64 0
  %9 = load float, ptr %8, align 4
  %10 = getelementptr inbounds %"class.vcg::Point3", ptr %3, i32 0, i32 0
  %11 = getelementptr inbounds [3 x float], ptr %10, i64 0, i64 1
  %12 = load float, ptr %11, align 4
  %13 = getelementptr inbounds %"class.vcg::Point3", ptr %3, i32 0, i32 0
  %14 = getelementptr inbounds [3 x float], ptr %13, i64 0, i64 1
  %15 = load float, ptr %14, align 4
  %16 = fmul float %12, %15
  %17 = call float @llvm.fmuladd.f32(float %6, float %9, float %16)
  %18 = getelementptr inbounds %"class.vcg::Point3", ptr %3, i32 0, i32 0
  %19 = getelementptr inbounds [3 x float], ptr %18, i64 0, i64 2
  %20 = load float, ptr %19, align 4
  %21 = getelementptr inbounds %"class.vcg::Point3", ptr %3, i32 0, i32 0
  %22 = getelementptr inbounds [3 x float], ptr %21, i64 0, i64 2
  %23 = load float, ptr %22, align 4
  %24 = call float @llvm.fmuladd.f32(float %20, float %23, float %17)
  %25 = call noundef float @_ZN3vcg4math4SqrtEf(float noundef %24)
  ret float %25
}

; Function Attrs: mustprogress uwtable
define linkonce_odr { <2 x float>, float } @_ZNK3vcg5Line3IfLb0EE12ClosestPointERKNS_6Point3IfEE(ptr noundef nonnull align 4 dereferenceable(24) %0, ptr noundef nonnull align 4 dereferenceable(12) %1) #2 comdat align 2 {
  %3 = alloca %"class.vcg::Point3", align 4
  %4 = alloca ptr, align 8
  %5 = alloca ptr, align 8
  %6 = alloca { <2 x float>, float }, align 8
  %7 = alloca { <2 x float>, float }, align 8
  store ptr %0, ptr %4, align 8
  store ptr %1, ptr %5, align 8
  %8 = load ptr, ptr %4, align 8
  %9 = load ptr, ptr %5, align 8
  %10 = call noundef float @_ZNK3vcg5Line3IfLb0EE10ProjectionERKNS_6Point3IfEE(ptr noundef nonnull align 4 dereferenceable(24) %8, ptr noundef nonnull align 4 dereferenceable(12) %9)
  %11 = call { <2 x float>, float } @_ZNK3vcg5Line3IfLb0EE1PEf(ptr noundef nonnull align 4 dereferenceable(24) %8, float noundef %10)
  %12 = getelementptr inbounds %"class.vcg::Point3", ptr %3, i32 0, i32 0
  store { <2 x float>, float } %11, ptr %6, align 8
  call void @llvm.memcpy.p0.p0.i64(ptr align 4 %12, ptr align 8 %6, i64 12, i1 false)
  %13 = getelementptr inbounds %"class.vcg::Point3", ptr %3, i32 0, i32 0
  call void @llvm.memcpy.p0.p0.i64(ptr align 8 %7, ptr align 4 %13, i64 12, i1 false)
  %14 = load { <2 x float>, float }, ptr %7, align 8
  ret { <2 x float>, float } %14
}

; Function Attrs: mustprogress uwtable
define linkonce_odr noundef float @_ZNK3vcg6Point3IfE3dotERKS1_(ptr noundef nonnull align 4 dereferenceable(12) %0, ptr noundef nonnull align 4 dereferenceable(12) %1) #3 comdat align 2 {
  %3 = alloca ptr, align 8
  %4 = alloca ptr, align 8
  store ptr %0, ptr %3, align 8
  store ptr %1, ptr %4, align 8
  %5 = load ptr, ptr %3, align 8
  %6 = load ptr, ptr %4, align 8
  %7 = call noundef float @_ZNK3vcg6Point3IfEmlERKS1_(ptr noundef nonnull align 4 dereferenceable(12) %5, ptr noundef nonnull align 4 dereferenceable(12) %6)
  ret float %7
}

; Function Attrs: mustprogress uwtable
define linkonce_odr { <2 x float>, float } @_ZNK3vcg6Point3IfEmiERKS1_(ptr noundef nonnull align 4 dereferenceable(12) %0, ptr noundef nonnull align 4 dereferenceable(12) %1) #3 comdat align 2 {
  %3 = alloca %"class.vcg::Point3", align 4
  %4 = alloca ptr, align 8
  %5 = alloca ptr, align 8
  %6 = alloca { <2 x float>, float }, align 8
  store ptr %0, ptr %4, align 8
  store ptr %1, ptr %5, align 8
  %7 = load ptr, ptr %4, align 8
  %8 = getelementptr inbounds %"class.vcg::Point3", ptr %7, i32 0, i32 0
  %9 = getelementptr inbounds [3 x float], ptr %8, i64 0, i64 0
  %10 = load float, ptr %9, align 4
  %11 = load ptr, ptr %5, align 8
  %12 = getelementptr inbounds %"class.vcg::Point3", ptr %11, i32 0, i32 0
  %13 = getelementptr inbounds [3 x float], ptr %12, i64 0, i64 0
  %14 = load float, ptr %13, align 4
  %15 = fsub float %10, %14
  %16 = getelementptr inbounds %"class.vcg::Point3", ptr %7, i32 0, i32 0
  %17 = getelementptr inbounds [3 x float], ptr %16, i64 0, i64 1
  %18 = load float, ptr %17, align 4
  %19 = load ptr, ptr %5, align 8
  %20 = getelementptr inbounds %"class.vcg::Point3", ptr %19, i32 0, i32 0
  %21 = getelementptr inbounds [3 x float], ptr %20, i64 0, i64 1
  %22 = load float, ptr %21, align 4
  %23 = fsub float %18, %22
  %24 = getelementptr inbounds %"class.vcg::Point3", ptr %7, i32 0, i32 0
  %25 = getelementptr inbounds [3 x float], ptr %24, i64 0, i64 2
  %26 = load float, ptr %25, align 4
  %27 = load ptr, ptr %5, align 8
  %28 = getelementptr inbounds %"class.vcg::Point3", ptr %27, i32 0, i32 0
  %29 = getelementptr inbounds [3 x float], ptr %28, i64 0, i64 2
  %30 = load float, ptr %29, align 4
  %31 = fsub float %26, %30
  call void @_ZN3vcg6Point3IfEC2Efff(ptr noundef nonnull align 4 dereferenceable(12) %3, float noundef %15, float noundef %23, float noundef %31)
  %32 = getelementptr inbounds %"class.vcg::Point3", ptr %3, i32 0, i32 0
  call void @llvm.memcpy.p0.p0.i64(ptr align 8 %6, ptr align 4 %32, i64 12, i1 false)
  %33 = load { <2 x float>, float }, ptr %6, align 8
  ret { <2 x float>, float } %33
}

; Function Attrs: mustprogress uwtable
define linkonce_odr { <2 x float>, float } @_ZN3vcg12ClosestPointIfLb0EEENS_6Point3IT_EENS_5Line3IS2_XT0_EEERKS3_(ptr noundef byval(%"class.vcg::Line3") align 8 %0, ptr noundef nonnull align 4 dereferenceable(12) %1) #2 comdat {
  %3 = alloca %"class.vcg::Point3", align 4
  %4 = alloca ptr, align 8
  %5 = alloca { <2 x float>, float }, align 8
  %6 = alloca { <2 x float>, float }, align 8
  store ptr %1, ptr %4, align 8
  %7 = load ptr, ptr %4, align 8
  %8 = call noundef float @_ZNK3vcg5Line3IfLb0EE10ProjectionERKNS_6Point3IfEE(ptr noundef nonnull align 4 dereferenceable(24) %0, ptr noundef nonnull align 4 dereferenceable(12) %7)
  %9 = call { <2 x float>, float } @_ZNK3vcg5Line3IfLb0EE1PEf(ptr noundef nonnull align 4 dereferenceable(24) %0, float noundef %8)
  %10 = getelementptr inbounds %"class.vcg::Point3", ptr %3, i32 0, i32 0
  store { <2 x float>, float } %9, ptr %5, align 8
  call void @llvm.memcpy.p0.p0.i64(ptr align 4 %10, ptr align 8 %5, i64 12, i1 false)
  %11 = getelementptr inbounds %"class.vcg::Point3", ptr %3, i32 0, i32 0
  call void @llvm.memcpy.p0.p0.i64(ptr align 8 %6, ptr align 4 %11, i64 12, i1 false)
  %12 = load { <2 x float>, float }, ptr %6, align 8
  ret { <2 x float>, float } %12
}

; Function Attrs: mustprogress uwtable
define linkonce_odr noundef float @_ZN3vcg8DistanceIfLb0EEET_RKNS_5Line3IS1_XT0_EEERKNS_6Point3IS1_EE(ptr noundef nonnull align 4 dereferenceable(24) %0, ptr noundef nonnull align 4 dereferenceable(12) %1) #2 comdat {
  %3 = alloca ptr, align 8
  %4 = alloca ptr, align 8
  %5 = alloca %"class.vcg::Point3", align 4
  %6 = alloca { <2 x float>, float }, align 8
  %7 = alloca %"class.vcg::Point3", align 4
  %8 = alloca { <2 x float>, float }, align 8
  store ptr %0, ptr %3, align 8
  store ptr %1, ptr %4, align 8
  %9 = load ptr, ptr %3, align 8
  %10 = load ptr, ptr %4, align 8
  %11 = call { <2 x float>, float } @_ZNK3vcg5Line3IfLb0EE12ClosestPointERKNS_6Point3IfEE(ptr noundef nonnull align 4 dereferenceable(24) %9, ptr noundef nonnull align 4 dereferenceable(12) %10)
  %12 = getelementptr inbounds %"class.vcg::Point3", ptr %5, i32 0, i32 0
  store { <2 x float>, float } %11, ptr %6, align 8
  call void @llvm.memcpy.p0.p0.i64(ptr align 4 %12, ptr align 8 %6, i64 12, i1 false)
  %13 = load ptr, ptr %4, align 8
  %14 = call { <2 x float>, float } @_ZNK3vcg6Point3IfEmiERKS1_(ptr noundef nonnull align 4 dereferenceable(12) %5, ptr noundef nonnull align 4 dereferenceable(12) %13)
  %15 = getelementptr inbounds %"class.vcg::Point3", ptr %7, i32 0, i32 0
  store { <2 x float>, float } %14, ptr %8, align 8
  call void @llvm.memcpy.p0.p0.i64(ptr align 4 %15, ptr align 8 %8, i64 12, i1 false)
  %16 = call noundef float @_ZNK3vcg6Point3IfE4NormEv(ptr noundef nonnull align 4 dereferenceable(12) %7)
  ret float %16
}

; Function Attrs: mustprogress uwtable
define noundef float @_ZN3vcg10trackutils14signedDistanceENS_5Line3IfLb0EEENS_6Point3IfEES4_(ptr noundef byval(%"class.vcg::Line3") align 8 %0, <2 x float> %1, float %2, <2 x float> %3, float %4) #2 {
  %6 = alloca %"class.vcg::Point3", align 4
  %7 = alloca { <2 x float>, float }, align 4
  %8 = alloca %"class.vcg::Point3", align 4
  %9 = alloca { <2 x float>, float }, align 4
  %10 = alloca %"class.vcg::Point3", align 4
  %11 = alloca %"class.vcg::Point3", align 4
  %12 = alloca %"class.vcg::Line3", align 8
  %13 = alloca { <2 x float>, float }, align 8
  %14 = alloca { <2 x float>, float }, align 8
  %15 = getelementptr inbounds { <2 x float>, float }, ptr %7, i32 0, i32 0
  store <2 x float> %1, ptr %15, align 4
  %16 = getelementptr inbounds { <2 x float>, float }, ptr %7, i32 0, i32 1
  store float %2, ptr %16, align 4
  call void @llvm.memcpy.p0.p0.i64(ptr align 4 %6, ptr align 4 %7, i64 12, i1 false)
  %17 = getelementptr inbounds { <2 x float>, float }, ptr %9, i32 0, i32 0
  store <2 x float> %3, ptr %17, align 4
  %18 = getelementptr inbounds { <2 x float>, float }, ptr %9, i32 0, i32 1
  store float %4, ptr %18, align 4
  call void @llvm.memcpy.p0.p0.i64(ptr align 4 %8, ptr align 4 %9, i64 12, i1 false)
  %19 = call noundef float @_ZN3vcg8DistanceIfLb0EEET_RKNS_5Line3IS1_XT0_EEERKNS_6Point3IS1_EE(ptr noundef nonnull align 4 dereferenceable(24) %0, ptr noundef nonnull align 4 dereferenceable(12) %6)
  call void @llvm.memcpy.p0.p0.i64(ptr align 4 %12, ptr align 8 %0, i64 24, i1 false)
  %20 = call { <2 x float>, float } @_ZN3vcg12ClosestPointIfLb0EEENS_6Point3IT_EENS_5Line3IS2_XT0_EEERKS3_(ptr noundef byval(%"class.vcg::Line3") align 8 %12, ptr noundef nonnull align 4 dereferenceable(12) %6)
  %21 = getelementptr inbounds %"class.vcg::Point3", ptr %11, i32 0, i32 0
  store { <2 x float>, float } %20, ptr %13, align 8
  call void @llvm.memcpy.p0.p0.i64(ptr align 4 %21, ptr align 8 %13, i64 12, i1 false)
  %22 = call { <2 x float>, float } @_ZNK3vcg6Point3IfEmiERKS1_(ptr noundef nonnull align 4 dereferenceable(12) %6, ptr noundef nonnull align 4 dereferenceable(12) %11)
  %23 = getelementptr inbounds %"class.vcg::Point3", ptr %10, i32 0, i32 0
  store { <2 x float>, float } %22, ptr %14, align 8
  call void @llvm.memcpy.p0.p0.i64(ptr align 4 %23, ptr align 8 %14, i64 12, i1 false)
  %24 = call noundef float @_ZNK3vcg6Point3IfE3dotERKS1_(ptr noundef nonnull align 4 dereferenceable(12) %10, ptr noundef nonnull align 4 dereferenceable(12) %8)
  %25 = fcmp oge float %24, 0.000000e+00
  %26 = select i1 %25, float 1.000000e+00, float -1.000000e+00
  %27 = fmul float %19, %26
  ret float %27
}