; Function Attrs: mustprogress nofree norecurse nosync nounwind willreturn memory(argmem: read) uwtable
define noundef float @_ZN3vcg10trackutils14signedDistanceENS_5Line3IfLb0EEENS_6Point3IfEES4_(ptr nocapture noundef readonly byval(%"class.vcg::Line3") align 8 %0, <2 x float> %1, float %2, <2 x float> %3, float %4) local_unnamed_addr #19 {
  %.sroa.013.0.vec.extract = extractelement <2 x float> %1, i64 0
  %6 = load float, ptr %0, align 8
  %7 = fsub float %.sroa.013.0.vec.extract, %6
  %.sroa.013.4.vec.extract = extractelement <2 x float> %1, i64 1
  %8 = getelementptr inbounds i8, ptr %0, i64 4
  %9 = load float, ptr %8, align 4
  %10 = fsub float %.sroa.013.4.vec.extract, %9
  %11 = getelementptr inbounds i8, ptr %0, i64 8
  %12 = load float, ptr %11, align 8
  %13 = fsub float %2, %12
  %14 = getelementptr inbounds i8, ptr %0, i64 12
  %15 = load float, ptr %14, align 4
  %16 = getelementptr inbounds i8, ptr %0, i64 16
  %17 = load float, ptr %16, align 8
  %18 = getelementptr inbounds i8, ptr %0, i64 20
  %19 = load float, ptr %18, align 4
  %20 = insertelement <2 x float> poison, float %10, i64 0
  %21 = insertelement <2 x float> %20, float %17, i64 1
  %22 = shufflevector <2 x float> %21, <2 x float> poison, <2 x i32> <i32 1, i32 1>
  %23 = fmul <2 x float> %21, %22
  %24 = insertelement <2 x float> poison, float %7, i64 0
  %25 = insertelement <2 x float> %24, float %15, i64 1
  %26 = shufflevector <2 x float> %25, <2 x float> poison, <2 x i32> <i32 1, i32 1>
  %27 = tail call <2 x float> @llvm.fmuladd.v2f32(<2 x float> %25, <2 x float> %26, <2 x float> %23)
  %28 = insertelement <2 x float> poison, float %13, i64 0
  %29 = insertelement <2 x float> %28, float %19, i64 1
  %30 = shufflevector <2 x float> %29, <2 x float> poison, <2 x i32> <i32 1, i32 1>
  %31 = tail call <2 x float> @llvm.fmuladd.v2f32(<2 x float> %29, <2 x float> %30, <2 x float> %27)
  %32 = extractelement <2 x float> %31, i64 0
  %33 = extractelement <2 x float> %31, i64 1
  %34 = fdiv float %32, %33
  %35 = fmul float %15, %34
  %36 = fmul float %17, %34
  %37 = fmul float %19, %34
  %38 = fadd float %6, %35
  %39 = fadd float %9, %36
  %40 = fadd float %12, %37
  %41 = fsub float %38, %.sroa.013.0.vec.extract
  %42 = fsub float %39, %.sroa.013.4.vec.extract
  %43 = fsub float %40, %2
  %44 = fmul float %42, %42
  %45 = tail call float @llvm.fmuladd.f32(float %41, float %41, float %44)
  %46 = tail call float @llvm.fmuladd.f32(float %43, float %43, float %45)
  %sqrt.i.i = tail call noundef float @llvm.sqrt.f32(float %46)
  %47 = fsub float %.sroa.013.0.vec.extract, %38
  %48 = fsub float %.sroa.013.4.vec.extract, %39
  %49 = fsub float %2, %40
  %.sroa.011.0.vec.extract = extractelement <2 x float> %3, i64 0
  %.sroa.011.4.vec.extract = extractelement <2 x float> %3, i64 1
  %50 = fmul float %.sroa.011.4.vec.extract, %48
  %51 = tail call float @llvm.fmuladd.f32(float %47, float %.sroa.011.0.vec.extract, float %50)
  %52 = tail call noundef float @llvm.fmuladd.f32(float %49, float %4, float %51)
  %53 = fcmp oge float %52, 0.000000e+00
  %54 = fneg float %sqrt.i.i
  %55 = select i1 %53, float %sqrt.i.i, float %54
  ret float %55
}